target datalayout = "e-m:e-p270:32:32-p271:32:32-p272:64:64-i64:64-i128:128-f80:128-n8:16:32:64-S128"
target triple = "x86_64-pc-linux-gnu"

%struct.gmx_ana_poscalc_t = type { i32, i32, i32, %struct.t_blocka, ptr, %struct.gmx_ana_index_t, ptr, i8, ptr, ptr, ptr, i32, ptr }
%struct.t_blocka = type { i32, ptr, i32, ptr, i32, i32 }
%struct.gmx_ana_index_t = type { i32, ptr, i32 }

; Function Attrs: mustprogress nounwind uwtable
define void @_Z25gmx_ana_poscalc_set_flagsP17gmx_ana_poscalc_ti(ptr noundef %0, i32 noundef %1) #3 {
  %3 = alloca ptr, align 8
  %4 = alloca i32, align 4
  store ptr %0, ptr %3, align 8, !tbaa !171
  store i32 %1, ptr %4, align 4, !tbaa !15
  %5 = load ptr, ptr %3, align 8, !tbaa !171
  %6 = getelementptr inbounds nuw %struct.gmx_ana_poscalc_t, ptr %5, i32 0, i32 0
  %7 = load i32, ptr %6, align 8, !tbaa !183
  %8 = icmp eq i32 %7, 0
  br i1 %8, label %9, label %12

9:                                                ; preds = %2
  %10 = load i32, ptr %4, align 4, !tbaa !15
  %11 = and i32 %10, -2
  store i32 %11, ptr %4, align 4, !tbaa !15
  br label %12

12:                                               ; preds = %9, %2
  %13 = load i32, ptr %4, align 4, !tbaa !15
  %14 = and i32 %13, 32
  %15 = icmp ne i32 %14, 0
  br i1 %15, label %16, label %19

16:                                               ; preds = %12
  %17 = load i32, ptr %4, align 4, !tbaa !15
  %18 = and i32 %17, -17
  store i32 %18, ptr %4, align 4, !tbaa !15
  br label %19

19:                                               ; preds = %16, %12
  %20 = load ptr, ptr %3, align 8, !tbaa !171
  %21 = getelementptr inbounds nuw %struct.gmx_ana_poscalc_t, ptr %20, i32 0, i32 0
  %22 = load i32, ptr %21, align 8, !tbaa !183
  %23 = icmp ne i32 %22, 1
  br i1 %23, label %24, label %32

24:                                               ; preds = %19
  %25 = load ptr, ptr %3, align 8, !tbaa !171
  %26 = getelementptr inbounds nuw %struct.gmx_ana_poscalc_t, ptr %25, i32 0, i32 0
  %27 = load i32, ptr %26, align 8, !tbaa !183
  %28 = icmp ne i32 %27, 2
  br i1 %28, label %29, label %32

29:                                               ; preds = %24
  %30 = load i32, ptr %4, align 4, !tbaa !15
  %31 = and i32 %30, -7
  store i32 %31, ptr %4, align 4, !tbaa !15
  br label %32

32:                                               ; preds = %29, %24, %19
  %33 = load i32, ptr %4, align 4, !tbaa !15
  %34 = load ptr, ptr %3, align 8, !tbaa !171
  %35 = getelementptr inbounds nuw %struct.gmx_ana_poscalc_t, ptr %34, i32 0, i32 1
  %36 = load i32, ptr %35, align 4, !tbaa !177
  %37 = or i32 %36, %33
  store i32 %37, ptr %35, align 4, !tbaa !177
  ret void
}