; Function Attrs: mustprogress nofree norecurse nosync nounwind willreturn memory(argmem: readwrite) uwtable
define void @_Z25gmx_ana_poscalc_set_flagsP17gmx_ana_poscalc_ti(ptr noundef captures(none) %0, i32 noundef %1) local_unnamed_addr #18 {
  %3 = load i32, ptr %0, align 8, !tbaa !82
  %4 = icmp eq i32 %3, 0
  %5 = and i32 %1, -2
  %spec.select = select i1 %4, i32 %5, i32 %1
  %6 = and i32 %spec.select, 32
  %.not = icmp eq i32 %6, 0
  %7 = and i32 %spec.select, -17
  %.1 = select i1 %.not, i32 %spec.select, i32 %7
  %.off = add i32 %3, -1
  %switch = icmp ult i32 %.off, 2
  %8 = and i32 %.1, -7
  %spec.select11 = select i1 %switch, i32 %.1, i32 %8
  %9 = getelementptr inbounds nuw i8, ptr %0, i64 4
  %10 = load i32, ptr %9, align 4, !tbaa !78
  %11 = or i32 %spec.select11, %10
  store i32 %11, ptr %9, align 4, !tbaa !78
  ret void
}